; Function Attrs: null_pointer_is_valid sspstrong uwtable
define i32 @ws_hmac_buffer(i32 noundef %0, ptr noundef %1, ptr noundef %2, i64 noundef %3, ptr noundef %4, i64 noundef %5) local_unnamed_addr #0 {
  %7 = alloca ptr, align 8
  call void @llvm.lifetime.start.p0(i64 8, ptr nonnull %7) #10
  %8 = call i32 @gcry_md_open(ptr noundef nonnull %7, i32 noundef %0, i32 noundef 2)
  %.not = icmp eq i32 %8, 0
  br i1 %.not, label %9, label %19

9:                                                ; preds = %6
  %10 = load ptr, ptr %7, align 8
  %11 = call i32 @gcry_md_setkey(ptr noundef %10, ptr noundef %4, i64 noundef %5)
  %.not13 = icmp eq i32 %11, 0
  %12 = load ptr, ptr %7, align 8
  br i1 %.not13, label %13, label %.sink.split

13:                                               ; preds = %9
  call void @gcry_md_write(ptr noundef %12, ptr noundef %2, i64 noundef %3)
  %14 = load ptr, ptr %7, align 8
  %15 = call ptr @gcry_md_read(ptr noundef %14, i32 noundef 0)
  %16 = call i32 @gcry_md_get_algo_dlen(i32 noundef %0)
  %17 = zext i32 %16 to i64
  call void @llvm.memcpy.p0.p0.i64(ptr noundef align 1 %1, ptr noundef align 1 %15, i64 noundef range(i64 0, 4294967296) %17, i1 noundef false) #10
  %18 = load ptr, ptr %7, align 8
  br label %.sink.split

.sink.split:                                      ; preds = %9, %13
  %.sink = phi ptr [ %18, %13 ], [ %12, %9 ]
  %.0.ph = phi i32 [ 0, %13 ], [ %11, %9 ]
  call void @gcry_md_close(ptr noundef %.sink)
  br label %19

19:                                               ; preds = %.sink.split, %6
  %.0 = phi i32 [ %8, %6 ], [ %.0.ph, %.sink.split ]
  call void @llvm.lifetime.end.p0(i64 8, ptr nonnull %7) #10
  ret i32 %.0
}